; Function Attrs: mustprogress uwtable
define noundef signext i8 @_ZNK6icu_7511Normalizer216isNormalizedUTF8ENS_11StringPieceER10UErrorCode(ptr noundef nonnull align 8 dereferenceable(8) %this, ptr %s.coerce0, i32 %s.coerce1, ptr noundef nonnull align 4 dereferenceable(4) %errorCode) unnamed_addr #4 align 2 personality ptr @__gxx_personality_v0 {
entry:
  %ref.tmp = alloca %"class.icu_75::UnicodeString", align 8
  %0 = load i32, ptr %errorCode, align 4
  %cmp.i = icmp sgt i32 %0, 0
  br i1 %cmp.i, label %cleanup.done, label %land.rhs

land.rhs:                                         ; preds = %entry
  call void @_ZN6icu_7513UnicodeString8fromUTF8ENS_11StringPieceE(ptr nonnull sret(%"class.icu_75::UnicodeString") align 8 %ref.tmp, ptr %s.coerce0, i32 %s.coerce1)
  %vtable = load ptr, ptr %this, align 8
  %vfn = getelementptr inbounds i8, ptr %vtable, i64 88
  %1 = load ptr, ptr %vfn, align 8
  %call2 = invoke noundef signext i8 %1(ptr noundef nonnull align 8 dereferenceable(8) %this, ptr noundef nonnull align 8 dereferenceable(64) %ref.tmp, ptr noundef nonnull align 4 dereferenceable(4) %errorCode)
          to label %cleanup.action unwind label %lpad

cleanup.action:                                   ; preds = %land.rhs
  %tobool3 = icmp ne i8 %call2, 0
  %2 = zext i1 %tobool3 to i8
  call void @_ZN6icu_7513UnicodeStringD1Ev(ptr noundef nonnull align 8 dereferenceable(64) %ref.tmp) #13
  br label %cleanup.done

cleanup.done:                                     ; preds = %entry, %cleanup.action
  %conv3 = phi i8 [ %2, %cleanup.action ], [ 0, %entry ]
  ret i8 %conv3

lpad:                                             ; preds = %land.rhs
  %3 = landingpad { ptr, i32 }
          cleanup
  call void @_ZN6icu_7513UnicodeStringD1Ev(ptr noundef nonnull align 8 dereferenceable(64) %ref.tmp) #13
  resume { ptr, i32 } %3
}